; Function Attrs: mustprogress uwtable
define noundef double @_ZNK8QuantLib24StrippedOptionletAdapter9minStrikeEv(ptr nocapture noundef nonnull readonly align 8 dereferenceable(136) %this) unnamed_addr #8 align 2 {
entry:
  %optionletStripper_ = getelementptr inbounds nuw i8, ptr %this, i64 88
  %0 = load ptr, ptr %optionletStripper_, align 8, !tbaa !60
  %cmp.not.i = icmp eq ptr %0, null
  br i1 %cmp.not.i, label %cond.false.i, label %_ZNK5boost10shared_ptrIN8QuantLib21StrippedOptionletBaseEEptEv.exit, !prof !62

cond.false.i:                                     ; preds = %entry
  tail call void @_ZN5boost16assertion_failedEPKcS1_S1_l(ptr noundef nonnull @.str.12, ptr noundef nonnull @__PRETTY_FUNCTION__._ZNK5boost10shared_ptrIN8QuantLib21StrippedOptionletBaseEEptEv, ptr noundef nonnull @.str.13, i64 noundef 784)
  %.pre.i = load ptr, ptr %optionletStripper_, align 8, !tbaa !60
  br label %_ZNK5boost10shared_ptrIN8QuantLib21StrippedOptionletBaseEEptEv.exit

_ZNK5boost10shared_ptrIN8QuantLib21StrippedOptionletBaseEEptEv.exit: ; preds = %entry, %cond.false.i
  %1 = phi ptr [ %0, %entry ], [ %.pre.i, %cond.false.i ]
  %vtable = load ptr, ptr %1, align 8, !tbaa !33
  %vfn = getelementptr inbounds i8, ptr %vtable, i64 40
  %2 = load ptr, ptr %vfn, align 8
  %call2 = tail call noundef nonnull align 8 dereferenceable(24) ptr %2(ptr noundef nonnull align 8 dereferenceable(12) %1, i64 noundef 0)
  %3 = load ptr, ptr %call2, align 8, !tbaa !3
  %4 = load double, ptr %3, align 8, !tbaa !81
  ret double %4
}